target datalayout = "e-m:e-p270:32:32-p271:32:32-p272:64:64-i64:64-i128:128-f80:128-n8:16:32:64-S128"
target triple = "x86_64-pc-linux-gnu"

%struct.Vec_Int_t_ = type { i32, i32, ptr }
%struct.Gia_Man_t_ = type { ptr, ptr, i32, i32, i32, i32, ptr, ptr, i32, i32, i32, ptr, ptr, %struct.Vec_Int_t_, %struct.Vec_Int_t_, i32, i32, i32, %struct.Vec_Int_t_, ptr, ptr, ptr, i32, i32, i32, i32, ptr, ptr, ptr, ptr, ptr, i32, i32, ptr, i32, ptr, ptr, ptr, ptr, ptr, ptr, ptr, ptr, ptr, ptr, ptr, ptr, ptr, ptr, ptr, ptr, ptr, ptr, %struct.Vec_Int_t_, %struct.Vec_Int_t_, ptr, ptr, ptr, ptr, ptr, ptr, ptr, ptr, ptr, ptr, ptr, ptr, ptr, ptr, ptr, ptr, ptr, ptr, ptr, ptr, ptr, i32, float, float, ptr, ptr, i32, ptr, ptr, ptr, ptr, ptr, ptr, ptr, ptr, ptr, ptr, ptr, ptr, ptr, ptr, ptr, i64, i64, ptr, ptr, i32, i32, i32, i32, i32, i32, i32, i32, i32, i32, i32, i32, ptr, ptr, ptr, ptr, ptr, ptr, ptr, ptr, i32, i32, i32, ptr, i32, i32, ptr, ptr, ptr, ptr, ptr, ptr, i32, i32, ptr, %struct.Vec_Int_t_, %struct.Vec_Int_t_, %struct.Vec_Int_t_, ptr, ptr, ptr, i32, i32, i32, i32, ptr, ptr, ptr, ptr, ptr }
%struct.Abc_Cex_t_ = type { i32, i32, i32, i32, i32, [0 x i32] }

; Function Attrs: inlinehint nounwind uwtable
define internal i32 @Vec_IntSize(ptr noundef %0) #1 {
  %2 = alloca ptr, align 8
  store ptr %0, ptr %2, align 8, !tbaa !22
  %3 = load ptr, ptr %2, align 8, !tbaa !22
  %4 = getelementptr inbounds nuw %struct.Vec_Int_t_, ptr %3, i32 0, i32 1
  %5 = load i32, ptr %4, align 4, !tbaa !23
  ret i32 %5
}

; Function Attrs: inlinehint nounwind uwtable
define internal void @Abc_InfoSetBit(ptr noundef %0, i32 noundef %1) #1 {
  %3 = alloca ptr, align 8
  %4 = alloca i32, align 4
  store ptr %0, ptr %3, align 8, !tbaa !74
  store i32 %1, ptr %4, align 4, !tbaa !8
  %5 = load i32, ptr %4, align 4, !tbaa !8
  %6 = and i32 %5, 31
  %7 = shl i32 1, %6
  %8 = load ptr, ptr %3, align 8, !tbaa !74
  %9 = load i32, ptr %4, align 4, !tbaa !8
  %10 = ashr i32 %9, 5
  %11 = sext i32 %10 to i64
  %12 = getelementptr inbounds i32, ptr %8, i64 %11
  %13 = load i32, ptr %12, align 4, !tbaa !8
  %14 = or i32 %13, %7
  store i32 %14, ptr %12, align 4, !tbaa !8
  ret void
}

; Function Attrs: inlinehint nounwind uwtable
define internal i32 @Abc_InfoHasBit(ptr noundef %0, i32 noundef %1) #1 {
  %3 = alloca ptr, align 8
  %4 = alloca i32, align 4
  store ptr %0, ptr %3, align 8, !tbaa !74
  store i32 %1, ptr %4, align 4, !tbaa !8
  %5 = load ptr, ptr %3, align 8, !tbaa !74
  %6 = load i32, ptr %4, align 4, !tbaa !8
  %7 = ashr i32 %6, 5
  %8 = sext i32 %7 to i64
  %9 = getelementptr inbounds i32, ptr %5, i64 %8
  %10 = load i32, ptr %9, align 4, !tbaa !8
  %11 = load i32, ptr %4, align 4, !tbaa !8
  %12 = and i32 %11, 31
  %13 = shl i32 1, %12
  %14 = and i32 %10, %13
  %15 = icmp ugt i32 %14, 0
  %16 = zext i1 %15 to i32
  ret i32 %16
}

; Function Attrs: inlinehint nounwind uwtable
define internal i32 @Vec_IntEntry(ptr noundef %0, i32 noundef %1) #1 {
  %3 = alloca ptr, align 8
  %4 = alloca i32, align 4
  store ptr %0, ptr %3, align 8, !tbaa !22
  store i32 %1, ptr %4, align 4, !tbaa !8
  %5 = load ptr, ptr %3, align 8, !tbaa !22
  %6 = getelementptr inbounds nuw %struct.Vec_Int_t_, ptr %5, i32 0, i32 2
  %7 = load ptr, ptr %6, align 8, !tbaa !26
  %8 = load i32, ptr %4, align 4, !tbaa !8
  %9 = sext i32 %8 to i64
  %10 = getelementptr inbounds i32, ptr %7, i64 %9
  %11 = load i32, ptr %10, align 4, !tbaa !8
  ret i32 %11
}

; Function Attrs: inlinehint nounwind uwtable
define internal i32 @Gia_ManPiNum(ptr noundef %0) #1 {
  %2 = alloca ptr, align 8
  store ptr %0, ptr %2, align 8, !tbaa !19
  %3 = load ptr, ptr %2, align 8, !tbaa !19
  %4 = getelementptr inbounds nuw %struct.Gia_Man_t_, ptr %3, i32 0, i32 11
  %5 = load ptr, ptr %4, align 8, !tbaa !69
  %6 = call i32 @Vec_IntSize(ptr noundef %5)
  %7 = load ptr, ptr %2, align 8, !tbaa !19
  %8 = getelementptr inbounds nuw %struct.Gia_Man_t_, ptr %7, i32 0, i32 2
  %9 = load i32, ptr %8, align 8, !tbaa !49
  %10 = sub nsw i32 %6, %9
  ret i32 %10
}

; Function Attrs: inlinehint nounwind uwtable
define internal i32 @Gia_ManRegNum(ptr noundef %0) #1 {
  %2 = alloca ptr, align 8
  store ptr %0, ptr %2, align 8, !tbaa !19
  %3 = load ptr, ptr %2, align 8, !tbaa !19
  %4 = getelementptr inbounds nuw %struct.Gia_Man_t_, ptr %3, i32 0, i32 2
  %5 = load i32, ptr %4, align 8, !tbaa !49
  ret i32 %5
}

; Function Attrs: nounwind uwtable
define ptr @Gia_ManGenerateCounter(ptr noundef %0, i32 noundef %1, i32 noundef %2, i32 noundef %3, i32 noundef %4, ptr noundef %5) #0 {
  %7 = alloca ptr, align 8
  %8 = alloca i32, align 4
  %9 = alloca i32, align 4
  %10 = alloca i32, align 4
  %11 = alloca i32, align 4
  %12 = alloca ptr, align 8
  %13 = alloca ptr, align 8
  %14 = alloca ptr, align 8
  %15 = alloca i32, align 4
  %16 = alloca i32, align 4
  %17 = alloca i32, align 4
  %18 = alloca i32, align 4
  %19 = alloca i32, align 4
  store ptr %0, ptr %7, align 8, !tbaa !19
  store i32 %1, ptr %8, align 4, !tbaa !8
  store i32 %2, ptr %9, align 4, !tbaa !8
  store i32 %3, ptr %10, align 4, !tbaa !8
  store i32 %4, ptr %11, align 4, !tbaa !8
  store ptr %5, ptr %12, align 8, !tbaa !22
  call void @llvm.lifetime.start.p0(i64 8, ptr %13) #11
  call void @llvm.lifetime.start.p0(i64 8, ptr %14) #11
  call void @llvm.lifetime.start.p0(i64 4, ptr %15) #11
  call void @llvm.lifetime.start.p0(i64 4, ptr %16) #11
  call void @llvm.lifetime.start.p0(i64 4, ptr %17) #11
  call void @llvm.lifetime.start.p0(i64 4, ptr %18) #11
  call void @llvm.lifetime.start.p0(i64 4, ptr %19) #11
  %20 = load ptr, ptr %7, align 8, !tbaa !19
  %21 = call i32 @Gia_ManRegNum(ptr noundef %20)
  %22 = load ptr, ptr %7, align 8, !tbaa !19
  %23 = call i32 @Gia_ManPiNum(ptr noundef %22)
  %24 = load i32, ptr %8, align 4, !tbaa !8
  %25 = add nsw i32 %24, 1
  %26 = call ptr @Abc_CexAlloc(i32 noundef %21, i32 noundef %23, i32 noundef %25)
  store ptr %26, ptr %13, align 8, !tbaa !87
  %27 = load i32, ptr %8, align 4, !tbaa !8
  %28 = load ptr, ptr %13, align 8, !tbaa !87
  %29 = getelementptr inbounds nuw %struct.Abc_Cex_t_, ptr %28, i32 0, i32 1
  store i32 %27, ptr %29, align 4, !tbaa !88
  %30 = load i32, ptr %9, align 4, !tbaa !8
  %31 = load ptr, ptr %13, align 8, !tbaa !87
  %32 = getelementptr inbounds nuw %struct.Abc_Cex_t_, ptr %31, i32 0, i32 0
  store i32 %30, ptr %32, align 4, !tbaa !90
  %33 = load ptr, ptr %13, align 8, !tbaa !87
  %34 = getelementptr inbounds nuw %struct.Abc_Cex_t_, ptr %33, i32 0, i32 2
  %35 = load i32, ptr %34, align 4, !tbaa !91
  store i32 %35, ptr %19, align 4, !tbaa !8
  %36 = load i32, ptr %10, align 4, !tbaa !8
  %37 = sext i32 %36 to i64
  %38 = mul i64 4, %37
  %39 = call noalias ptr @malloc(i64 noundef %38) #12
  store ptr %39, ptr %14, align 8, !tbaa !74
  store i32 0, ptr %15, align 4, !tbaa !8
  br label %40

40:                                               ; preds = %92, %6
  %41 = load i32, ptr %15, align 4, !tbaa !8
  %42 = load i32, ptr %8, align 4, !tbaa !8
  %43 = icmp sle i32 %41, %42
  br i1 %43, label %44, label %100

44:                                               ; preds = %40
  store i32 0, ptr %16, align 4, !tbaa !8
  br label %45

45:                                               ; preds = %88, %44
  %46 = load i32, ptr %16, align 4, !tbaa !8
  %47 = load ptr, ptr %7, align 8, !tbaa !19
  %48 = call i32 @Gia_ManPiNum(ptr noundef %47)
  %49 = icmp slt i32 %46, %48
  br i1 %49, label %50, label %91

50:                                               ; preds = %45
  %51 = load ptr, ptr %12, align 8, !tbaa !22
  %52 = load i32, ptr %16, align 4, !tbaa !8
  %53 = call i32 @Vec_IntEntry(ptr noundef %51, i32 noundef %52)
  store i32 %53, ptr %18, align 4, !tbaa !8
  %54 = load i32, ptr %18, align 4, !tbaa !8
  %55 = load ptr, ptr %13, align 8, !tbaa !87
  %56 = getelementptr inbounds nuw %struct.Abc_Cex_t_, ptr %55, i32 0, i32 3
  %57 = load i32, ptr %56, align 4, !tbaa !92
  %58 = icmp sge i32 %54, %57
  br i1 %58, label %59, label %60

59:                                               ; preds = %50
  br label %88

60:                                               ; preds = %50
  %61 = load i32, ptr %10, align 4, !tbaa !8
  %62 = sub nsw i32 %61, 1
  store i32 %62, ptr %17, align 4, !tbaa !8
  br label %63

63:                                               ; preds = %72, %60
  %64 = load i32, ptr %17, align 4, !tbaa !8
  %65 = icmp sge i32 %64, 0
  br i1 %65, label %66, label %75

66:                                               ; preds = %63
  %67 = call i32 @Gia_ManRandom(i32 noundef 0)
  %68 = load ptr, ptr %14, align 8, !tbaa !74
  %69 = load i32, ptr %17, align 4, !tbaa !8
  %70 = sext i32 %69 to i64
  %71 = getelementptr inbounds i32, ptr %68, i64 %70
  store i32 %67, ptr %71, align 4, !tbaa !8
  br label %72

72:                                               ; preds = %66
  %73 = load i32, ptr %17, align 4, !tbaa !8
  %74 = add nsw i32 %73, -1
  store i32 %74, ptr %17, align 4, !tbaa !8
  br label %63, !llvm.loop !93

75:                                               ; preds = %63
  %76 = load ptr, ptr %14, align 8, !tbaa !74
  %77 = load i32, ptr %11, align 4, !tbaa !8
  %78 = call i32 @Abc_InfoHasBit(ptr noundef %76, i32 noundef %77)
  %79 = icmp ne i32 %78, 0
  br i1 %79, label %80, label %87

80:                                               ; preds = %75
  %81 = load ptr, ptr %13, align 8, !tbaa !87
  %82 = getelementptr inbounds nuw %struct.Abc_Cex_t_, ptr %81, i32 0, i32 5
  %83 = getelementptr inbounds [0 x i32], ptr %82, i64 0, i64 0
  %84 = load i32, ptr %19, align 4, !tbaa !8
  %85 = load i32, ptr %18, align 4, !tbaa !8
  %86 = add nsw i32 %84, %85
  call void @Abc_InfoSetBit(ptr noundef %83, i32 noundef %86)
  br label %87

87:                                               ; preds = %80, %75
  br label %88

88:                                               ; preds = %87, %59
  %89 = load i32, ptr %16, align 4, !tbaa !8
  %90 = add nsw i32 %89, 1
  store i32 %90, ptr %16, align 4, !tbaa !8
  br label %45, !llvm.loop !94

91:                                               ; preds = %45
  br label %92

92:                                               ; preds = %91
  %93 = load i32, ptr %15, align 4, !tbaa !8
  %94 = add nsw i32 %93, 1
  store i32 %94, ptr %15, align 4, !tbaa !8
  %95 = load ptr, ptr %13, align 8, !tbaa !87
  %96 = getelementptr inbounds nuw %struct.Abc_Cex_t_, ptr %95, i32 0, i32 3
  %97 = load i32, ptr %96, align 4, !tbaa !92
  %98 = load i32, ptr %19, align 4, !tbaa !8
  %99 = add nsw i32 %98, %97
  store i32 %99, ptr %19, align 4, !tbaa !8
  br label %40, !llvm.loop !95

100:                                              ; preds = %40
  %101 = load ptr, ptr %14, align 8, !tbaa !74
  %102 = icmp ne ptr %101, null
  br i1 %102, label %103, label %105

103:                                              ; preds = %100
  %104 = load ptr, ptr %14, align 8, !tbaa !74
  call void @free(ptr noundef %104) #11
  store ptr null, ptr %14, align 8, !tbaa !74
  br label %106

105:                                              ; preds = %100
  br label %106

106:                                              ; preds = %105, %103
  %107 = load ptr, ptr %13, align 8, !tbaa !87
  call void @llvm.lifetime.end.p0(i64 4, ptr %19) #11
  call void @llvm.lifetime.end.p0(i64 4, ptr %18) #11
  call void @llvm.lifetime.end.p0(i64 4, ptr %17) #11
  call void @llvm.lifetime.end.p0(i64 4, ptr %16) #11
  call void @llvm.lifetime.end.p0(i64 4, ptr %15) #11
  call void @llvm.lifetime.end.p0(i64 8, ptr %14) #11
  call void @llvm.lifetime.end.p0(i64 8, ptr %13) #11
  ret ptr %107
}