; Function Attrs: nounwind uwtable
define noundef ptr @Gia_ManGenerateCounter(ptr noundef readonly captures(none) %0, i32 noundef %1, i32 noundef %2, i32 noundef %3, i32 noundef %4, ptr noundef readonly captures(none) %5) local_unnamed_addr #1 {
  %7 = getelementptr i8, ptr %0, i64 16
  %.val = load i32, ptr %7, align 8, !tbaa !44
  %8 = getelementptr i8, ptr %0, i64 64
  %.val45 = load ptr, ptr %8, align 8, !tbaa !48
  %9 = getelementptr i8, ptr %.val45, i64 4
  %.val45.val = load i32, ptr %9, align 4, !tbaa !34
  %10 = sub nsw i32 %.val45.val, %.val
  %11 = add i32 %1, 1
  %12 = tail call ptr @Abc_CexAlloc(i32 noundef %.val, i32 noundef %10, i32 noundef %11) #26
  %13 = getelementptr inbounds nuw i8, ptr %12, i64 4
  store i32 %1, ptr %13, align 4, !tbaa !84
  store i32 %2, ptr %12, align 4, !tbaa !86
  %14 = getelementptr inbounds nuw i8, ptr %12, i64 8
  %15 = load i32, ptr %14, align 4, !tbaa !87
  %16 = sext i32 %3 to i64
  %17 = shl nsw i64 %16, 2
  %18 = tail call noalias ptr @malloc(i64 noundef %17) #25
  %.not54 = icmp slt i32 %1, 0
  br i1 %.not54, label %._crit_edge, label %.preheader46.lr.ph

.preheader46.lr.ph:                               ; preds = %6
  %19 = getelementptr i8, ptr %5, i64 8
  %20 = getelementptr inbounds nuw i8, ptr %12, i64 12
  %21 = icmp sgt i32 %3, 0
  %22 = ashr i32 %4, 5
  %23 = sext i32 %22 to i64
  %24 = getelementptr inbounds i32, ptr %18, i64 %23
  %25 = and i32 %4, 31
  %26 = shl nuw i32 1, %25
  %27 = getelementptr inbounds nuw i8, ptr %12, i64 20
  br i1 %21, label %.preheader46.us.preheader, label %.preheader46.preheader

.preheader46.preheader:                           ; preds = %.preheader46.lr.ph
  %.val4248.pre = load i32, ptr %7, align 8, !tbaa !44
  %.val4349.pre = load ptr, ptr %8, align 8, !tbaa !48
  %28 = getelementptr i8, ptr %.val4349.pre, i64 4
  %29 = getelementptr i8, ptr %.val4349.pre, i64 4
  br label %.preheader46

.preheader46.us.preheader:                        ; preds = %.preheader46.lr.ph
  %30 = zext nneg i32 %3 to i64
  %.val4248.us.pre = load i32, ptr %7, align 8, !tbaa !44
  %.val4349.us.pre = load ptr, ptr %8, align 8, !tbaa !48
  br label %.preheader46.us

.preheader46.us:                                  ; preds = %.preheader46.us.preheader, %._crit_edge53.split.us.us
  %.val4349.us = phi ptr [ %.val4349.us77, %._crit_edge53.split.us.us ], [ %.val4349.us.pre, %.preheader46.us.preheader ]
  %.val4248.us = phi i32 [ %.val4248.us75, %._crit_edge53.split.us.us ], [ %.val4248.us.pre, %.preheader46.us.preheader ]
  %.056.us = phi i32 [ %35, %._crit_edge53.split.us.us ], [ %15, %.preheader46.us.preheader ]
  %.03555.us = phi i32 [ %33, %._crit_edge53.split.us.us ], [ 0, %.preheader46.us.preheader ]
  %31 = getelementptr i8, ptr %.val4349.us, i64 4
  %.val43.val50.us = load i32, ptr %31, align 4, !tbaa !34
  %32 = icmp sgt i32 %.val43.val50.us, %.val4248.us
  br i1 %32, label %.lr.ph52.us, label %._crit_edge53.split.us.us

._crit_edge53.split.us.us:                        ; preds = %48, %.preheader46.us
  %.val4349.us77 = phi ptr [ %.val4349.us, %.preheader46.us ], [ %.val43.us.us, %48 ]
  %.val4248.us75 = phi i32 [ %.val4248.us, %.preheader46.us ], [ %.val42.us.us, %48 ]
  %33 = add nuw i32 %.03555.us, 1
  %34 = load i32, ptr %20, align 4, !tbaa !88
  %35 = add nsw i32 %34, %.056.us
  %exitcond66.not = icmp eq i32 %.03555.us, %1
  br i1 %exitcond66.not, label %._crit_edge, label %.preheader46.us, !llvm.loop !89

.lr.ph52.us:                                      ; preds = %.preheader46.us, %48
  %indvars.iv63 = phi i64 [ %indvars.iv.next64, %48 ], [ 0, %.preheader46.us ]
  %.val41.us.us = load ptr, ptr %19, align 8, !tbaa !36
  %36 = getelementptr inbounds nuw i32, ptr %.val41.us.us, i64 %indvars.iv63
  %37 = load i32, ptr %36, align 4, !tbaa !37
  %38 = load i32, ptr %20, align 4, !tbaa !88
  %.not39.us.us = icmp slt i32 %37, %38
  br i1 %.not39.us.us, label %.preheader.us.us, label %48

39:                                               ; preds = %._crit_edge.us.us
  %40 = add nsw i32 %37, %.056.us
  %41 = and i32 %40, 31
  %42 = shl nuw i32 1, %41
  %43 = ashr i32 %40, 5
  %44 = sext i32 %43 to i64
  %45 = getelementptr inbounds i32, ptr %27, i64 %44
  %46 = load i32, ptr %45, align 4, !tbaa !37
  %47 = or i32 %46, %42
  store i32 %47, ptr %45, align 4, !tbaa !37
  br label %48

48:                                               ; preds = %._crit_edge.us.us, %39, %.lr.ph52.us
  %indvars.iv.next64 = add nuw nsw i64 %indvars.iv63, 1
  %.val42.us.us = load i32, ptr %7, align 8, !tbaa !44
  %.val43.us.us = load ptr, ptr %8, align 8, !tbaa !48
  %49 = getelementptr i8, ptr %.val43.us.us, i64 4
  %.val43.val.us.us = load i32, ptr %49, align 4, !tbaa !34
  %50 = sub nsw i32 %.val43.val.us.us, %.val42.us.us
  %51 = sext i32 %50 to i64
  %52 = icmp slt i64 %indvars.iv.next64, %51
  br i1 %52, label %.lr.ph52.us, label %._crit_edge53.split.us.us, !llvm.loop !90

.preheader.us.us:                                 ; preds = %.lr.ph52.us, %.preheader.us.us
  %indvars.iv60 = phi i64 [ %indvars.iv.next61, %.preheader.us.us ], [ %30, %.lr.ph52.us ]
  %indvars.iv.next61 = add nsw i64 %indvars.iv60, -1
  %53 = tail call i32 @Gia_ManRandom(i32 noundef 0) #26
  %54 = getelementptr inbounds nuw i32, ptr %18, i64 %indvars.iv.next61
  store i32 %53, ptr %54, align 4, !tbaa !37
  %55 = icmp sgt i64 %indvars.iv60, 1
  br i1 %55, label %.preheader.us.us, label %._crit_edge.us.us, !llvm.loop !91

._crit_edge.us.us:                                ; preds = %.preheader.us.us
  %56 = load i32, ptr %24, align 4, !tbaa !37
  %57 = and i32 %56, %26
  %.not40.us.us = icmp eq i32 %57, 0
  br i1 %.not40.us.us, label %48, label %39

.preheader46:                                     ; preds = %.preheader46.preheader, %._crit_edge53.split
  %.val4271 = phi i32 [ %.val4272, %._crit_edge53.split ], [ %.val4248.pre, %.preheader46.preheader ]
  %.val4248 = phi i32 [ %.val424867, %._crit_edge53.split ], [ %.val4248.pre, %.preheader46.preheader ]
  %.056 = phi i32 [ %79, %._crit_edge53.split ], [ %15, %.preheader46.preheader ]
  %.03555 = phi i32 [ %77, %._crit_edge53.split ], [ 0, %.preheader46.preheader ]
  %.val43.val50 = load i32, ptr %28, align 4, !tbaa !34
  %58 = icmp sgt i32 %.val43.val50, %.val4248
  br i1 %58, label %.lr.ph52.preheader, label %._crit_edge53.split

.lr.ph52.preheader:                               ; preds = %.preheader46
  %.val41.pre = load ptr, ptr %19, align 8, !tbaa !36
  br label %.lr.ph52

.lr.ph52:                                         ; preds = %.lr.ph52.preheader, %73
  %.val4273 = phi i32 [ %.val4271, %.lr.ph52.preheader ], [ %.val42, %73 ]
  %indvars.iv = phi i64 [ 0, %.lr.ph52.preheader ], [ %indvars.iv.next, %73 ]
  %59 = getelementptr inbounds nuw i32, ptr %.val41.pre, i64 %indvars.iv
  %60 = load i32, ptr %59, align 4, !tbaa !37
  %61 = load i32, ptr %20, align 4, !tbaa !88
  %.not39 = icmp slt i32 %60, %61
  br i1 %.not39, label %.preheader, label %73

.preheader:                                       ; preds = %.lr.ph52
  %62 = load i32, ptr %24, align 4, !tbaa !37
  %63 = and i32 %62, %26
  %.not40 = icmp eq i32 %63, 0
  br i1 %.not40, label %73, label %64

64:                                               ; preds = %.preheader
  %65 = add nsw i32 %60, %.056
  %66 = and i32 %65, 31
  %67 = shl nuw i32 1, %66
  %68 = ashr i32 %65, 5
  %69 = sext i32 %68 to i64
  %70 = getelementptr inbounds i32, ptr %27, i64 %69
  %71 = load i32, ptr %70, align 4, !tbaa !37
  %72 = or i32 %71, %67
  store i32 %72, ptr %70, align 4, !tbaa !37
  %.val42.pre = load i32, ptr %7, align 8, !tbaa !44
  br label %73

73:                                               ; preds = %.preheader, %64, %.lr.ph52
  %.val42 = phi i32 [ %.val4273, %.preheader ], [ %.val42.pre, %64 ], [ %.val4273, %.lr.ph52 ]
  %indvars.iv.next = add nuw nsw i64 %indvars.iv, 1
  %.val43.val = load i32, ptr %29, align 4, !tbaa !34
  %74 = sub nsw i32 %.val43.val, %.val42
  %75 = sext i32 %74 to i64
  %76 = icmp slt i64 %indvars.iv.next, %75
  br i1 %76, label %.lr.ph52, label %._crit_edge53.split, !llvm.loop !90

._crit_edge53.split:                              ; preds = %73, %.preheader46
  %.val4272 = phi i32 [ %.val4271, %.preheader46 ], [ %.val42, %73 ]
  %.val424867 = phi i32 [ %.val4248, %.preheader46 ], [ %.val42, %73 ]
  %77 = add nuw i32 %.03555, 1
  %78 = load i32, ptr %20, align 4, !tbaa !88
  %79 = add nsw i32 %78, %.056
  %exitcond.not = icmp eq i32 %.03555, %1
  br i1 %exitcond.not, label %._crit_edge, label %.preheader46, !llvm.loop !89

._crit_edge:                                      ; preds = %._crit_edge53.split, %._crit_edge53.split.us.us, %6
  %.not38 = icmp eq ptr %18, null
  br i1 %.not38, label %81, label %80

80:                                               ; preds = %._crit_edge
  tail call void @free(ptr noundef nonnull %18) #26
  br label %81

81:                                               ; preds = %._crit_edge, %80
  ret ptr %12
}